target datalayout = "e-m:e-p270:32:32-p271:32:32-p272:64:64-i64:64-i128:128-f80:128-n8:16:32:64-S128"
target triple = "x86_64-pc-linux-gnu"

%struct.hashmap = type { ptr, ptr, ptr, i32, i32, i32, i32, i8 }
%struct.hashmap_iter = type { ptr, ptr, i32 }
%struct.hashmap_entry = type { ptr, i32 }

; Function Attrs: nounwind uwtable
define dso_local ptr @hashmap_iter_next(ptr noundef %0) #0 {
  %2 = alloca ptr, align 8
  %3 = alloca ptr, align 8
  %4 = alloca ptr, align 8
  %5 = alloca i32, align 4
  store ptr %0, ptr %3, align 8, !tbaa !44
  call void @llvm.lifetime.start.p0(i64 8, ptr %4) #9
  %6 = load ptr, ptr %3, align 8, !tbaa !44
  %7 = getelementptr inbounds nuw %struct.hashmap_iter, ptr %6, i32 0, i32 1
  %8 = load ptr, ptr %7, align 8, !tbaa !49
  store ptr %8, ptr %4, align 8, !tbaa !29
  br label %9

9:                                                ; preds = %30, %1
  %10 = load ptr, ptr %4, align 8, !tbaa !29
  %11 = icmp ne ptr %10, null
  br i1 %11, label %12, label %19

12:                                               ; preds = %9
  %13 = load ptr, ptr %4, align 8, !tbaa !29
  %14 = getelementptr inbounds nuw %struct.hashmap_entry, ptr %13, i32 0, i32 0
  %15 = load ptr, ptr %14, align 8, !tbaa !38
  %16 = load ptr, ptr %3, align 8, !tbaa !44
  %17 = getelementptr inbounds nuw %struct.hashmap_iter, ptr %16, i32 0, i32 1
  store ptr %15, ptr %17, align 8, !tbaa !49
  %18 = load ptr, ptr %4, align 8, !tbaa !29
  store ptr %18, ptr %2, align 8
  store i32 1, ptr %5, align 4
  br label %43

19:                                               ; preds = %9
  %20 = load ptr, ptr %3, align 8, !tbaa !44
  %21 = getelementptr inbounds nuw %struct.hashmap_iter, ptr %20, i32 0, i32 2
  %22 = load i32, ptr %21, align 8, !tbaa !48
  %23 = load ptr, ptr %3, align 8, !tbaa !44
  %24 = getelementptr inbounds nuw %struct.hashmap_iter, ptr %23, i32 0, i32 0
  %25 = load ptr, ptr %24, align 8, !tbaa !46
  %26 = getelementptr inbounds nuw %struct.hashmap, ptr %25, i32 0, i32 4
  %27 = load i32, ptr %26, align 4, !tbaa !23
  %28 = icmp uge i32 %22, %27
  br i1 %28, label %29, label %30

29:                                               ; preds = %19
  store ptr null, ptr %2, align 8
  store i32 1, ptr %5, align 4
  br label %43

30:                                               ; preds = %19
  %31 = load ptr, ptr %3, align 8, !tbaa !44
  %32 = getelementptr inbounds nuw %struct.hashmap_iter, ptr %31, i32 0, i32 0
  %33 = load ptr, ptr %32, align 8, !tbaa !46
  %34 = getelementptr inbounds nuw %struct.hashmap, ptr %33, i32 0, i32 0
  %35 = load ptr, ptr %34, align 8, !tbaa !31
  %36 = load ptr, ptr %3, align 8, !tbaa !44
  %37 = getelementptr inbounds nuw %struct.hashmap_iter, ptr %36, i32 0, i32 2
  %38 = load i32, ptr %37, align 8, !tbaa !48
  %39 = add i32 %38, 1
  store i32 %39, ptr %37, align 8, !tbaa !48
  %40 = zext i32 %38 to i64
  %41 = getelementptr inbounds nuw ptr, ptr %35, i64 %40
  %42 = load ptr, ptr %41, align 8, !tbaa !29
  store ptr %42, ptr %4, align 8, !tbaa !29
  br label %9

43:                                               ; preds = %29, %12
  call void @llvm.lifetime.end.p0(i64 8, ptr %4) #9
  %44 = load ptr, ptr %2, align 8
  ret ptr %44
}

; Function Attrs: nounwind uwtable
define dso_local void @hashmap_iter_init(ptr noundef %0, ptr noundef %1) #0 {
  %3 = alloca ptr, align 8
  %4 = alloca ptr, align 8
  store ptr %0, ptr %3, align 8, !tbaa !21
  store ptr %1, ptr %4, align 8, !tbaa !44
  %5 = load ptr, ptr %3, align 8, !tbaa !21
  %6 = load ptr, ptr %4, align 8, !tbaa !44
  %7 = getelementptr inbounds nuw %struct.hashmap_iter, ptr %6, i32 0, i32 0
  store ptr %5, ptr %7, align 8, !tbaa !46
  %8 = load ptr, ptr %4, align 8, !tbaa !44
  %9 = getelementptr inbounds nuw %struct.hashmap_iter, ptr %8, i32 0, i32 2
  store i32 0, ptr %9, align 8, !tbaa !48
  %10 = load ptr, ptr %4, align 8, !tbaa !44
  %11 = getelementptr inbounds nuw %struct.hashmap_iter, ptr %10, i32 0, i32 1
  store ptr null, ptr %11, align 8, !tbaa !49
  ret void
}

; Function Attrs: nounwind uwtable
define internal void @free_individual_entries(ptr noundef %0, i64 noundef %1) #0 {
  %3 = alloca ptr, align 8
  %4 = alloca i64, align 8
  %5 = alloca %struct.hashmap_iter, align 8
  %6 = alloca ptr, align 8
  store ptr %0, ptr %3, align 8, !tbaa !21
  store i64 %1, ptr %4, align 8, !tbaa !16
  call void @llvm.lifetime.start.p0(i64 24, ptr %5) #9
  call void @llvm.lifetime.start.p0(i64 8, ptr %6) #9
  %7 = load ptr, ptr %3, align 8, !tbaa !21
  call void @hashmap_iter_init(ptr noundef %7, ptr noundef %5)
  br label %8

8:                                                ; preds = %11, %2
  %9 = call ptr @hashmap_iter_next(ptr noundef %5)
  store ptr %9, ptr %6, align 8, !tbaa !29
  %10 = icmp ne ptr %9, null
  br i1 %10, label %11, label %16

11:                                               ; preds = %8
  %12 = load ptr, ptr %6, align 8, !tbaa !29
  %13 = load i64, ptr %4, align 8, !tbaa !16
  %14 = sub i64 0, %13
  %15 = getelementptr inbounds i8, ptr %12, i64 %14
  call void @free(ptr noundef %15) #9
  br label %8, !llvm.loop !35

16:                                               ; preds = %8
  call void @llvm.lifetime.end.p0(i64 8, ptr %6) #9
  call void @llvm.lifetime.end.p0(i64 24, ptr %5) #9
  ret void
}

; Function Attrs: nounwind uwtable
define dso_local void @hashmap_clear_(ptr noundef %0, i64 noundef %1) #0 {
  %3 = alloca ptr, align 8
  %4 = alloca i64, align 8
  store ptr %0, ptr %3, align 8, !tbaa !21
  store i64 %1, ptr %4, align 8, !tbaa !16
  %5 = load ptr, ptr %3, align 8, !tbaa !21
  %6 = icmp ne ptr %5, null
  br i1 %6, label %7, label %12

7:                                                ; preds = %2
  %8 = load ptr, ptr %3, align 8, !tbaa !21
  %9 = getelementptr inbounds nuw %struct.hashmap, ptr %8, i32 0, i32 0
  %10 = load ptr, ptr %9, align 8, !tbaa !31
  %11 = icmp ne ptr %10, null
  br i1 %11, label %13, label %12

12:                                               ; preds = %7, %2
  br label %24

13:                                               ; preds = %7
  %14 = load i64, ptr %4, align 8, !tbaa !16
  %15 = icmp sge i64 %14, 0
  br i1 %15, label %16, label %19

16:                                               ; preds = %13
  %17 = load ptr, ptr %3, align 8, !tbaa !21
  %18 = load i64, ptr %4, align 8, !tbaa !16
  call void @free_individual_entries(ptr noundef %17, i64 noundef %18)
  br label %19

19:                                               ; preds = %16, %13
  %20 = load ptr, ptr %3, align 8, !tbaa !21
  %21 = getelementptr inbounds nuw %struct.hashmap, ptr %20, i32 0, i32 0
  %22 = load ptr, ptr %21, align 8, !tbaa !31
  call void @free(ptr noundef %22) #9
  %23 = load ptr, ptr %3, align 8, !tbaa !21
  call void @llvm.memset.p0.i64(ptr align 8 %23, i8 0, i64 48, i1 false)
  br label %24

24:                                               ; preds = %19, %12
  ret void
}