; Function Attrs: nounwind uwtable
define dso_local void @hashmap_clear_(ptr noundef %0, i64 noundef %1) local_unnamed_addr #3 {
  %.not = icmp eq ptr %0, null
  br i1 %.not, label %21, label %3

3:                                                ; preds = %2
  %4 = load ptr, ptr %0, align 8, !tbaa !21
  %.not7 = icmp eq ptr %4, null
  br i1 %.not7, label %21, label %5

5:                                                ; preds = %3
  %6 = icmp sgt i64 %1, -1
  br i1 %6, label %7, label %free_individual_entries.exit

7:                                                ; preds = %5
  %8 = getelementptr inbounds nuw i8, ptr %0, i64 28
  %9 = sub nsw i64 0, %1
  br label %10

10:                                               ; preds = %17, %7
  %.sroa.4.0.i = phi ptr [ null, %7 ], [ %18, %17 ]
  %.sroa.7.0.i = phi i32 [ 0, %7 ], [ %.sroa.7.1.i, %17 ]
  %.not16.i.i = icmp eq ptr %.sroa.4.0.i, null
  br i1 %.not16.i.i, label %.lr.ph.i.i, label %17

.lr.ph.i.i:                                       ; preds = %10
  %11 = load i32, ptr %8, align 4, !tbaa !13
  %12 = zext i32 %.sroa.7.0.i to i64
  %umax.i.i = tail call i32 @llvm.umax.i32(i32 %.sroa.7.0.i, i32 %11)
  %wide.trip.count.i.i = zext i32 %umax.i.i to i64
  %.pre = load ptr, ptr %0, align 8, !tbaa !21
  br label %13

13:                                               ; preds = %14, %.lr.ph.i.i
  %indvars.iv.i.i = phi i64 [ %12, %.lr.ph.i.i ], [ %indvars.iv.next.i.i, %14 ]
  %exitcond.not.i.i = icmp eq i64 %indvars.iv.i.i, %wide.trip.count.i.i
  br i1 %exitcond.not.i.i, label %free_individual_entries.exit, label %14

14:                                               ; preds = %13
  %indvars.iv.next.i.i = add nuw nsw i64 %indvars.iv.i.i, 1
  %15 = getelementptr inbounds nuw ptr, ptr %.pre, i64 %indvars.iv.i.i
  %.0.i.i = load ptr, ptr %15, align 8, !tbaa !24
  %.not.i.i = icmp eq ptr %.0.i.i, null
  br i1 %.not.i.i, label %13, label %.loopexit.i

.loopexit.i:                                      ; preds = %14
  %16 = trunc nuw i64 %indvars.iv.next.i.i to i32
  br label %17

17:                                               ; preds = %.loopexit.i, %10
  %.sroa.7.1.i = phi i32 [ %.sroa.7.0.i, %10 ], [ %16, %.loopexit.i ]
  %.0.lcssa.i.i = phi ptr [ %.sroa.4.0.i, %10 ], [ %.0.i.i, %.loopexit.i ]
  %18 = load ptr, ptr %.0.lcssa.i.i, align 8, !tbaa !26
  %19 = getelementptr inbounds i8, ptr %.0.lcssa.i.i, i64 %9
  tail call void @free(ptr noundef nonnull %19) #15
  br label %10, !llvm.loop !28

free_individual_entries.exit:                     ; preds = %13, %5
  %20 = phi ptr [ %4, %5 ], [ %.pre, %13 ]
  tail call void @free(ptr noundef %20) #15
  tail call void @llvm.memset.p0.i64(ptr noundef nonnull align 8 dereferenceable(48) %0, i8 0, i64 48, i1 false)
  br label %21

21:                                               ; preds = %2, %3, %free_individual_entries.exit
  ret void
}